Certificate:
    Data:
        Version: 3 (0x2)
        Serial Number:
            55:98:0f:a0:30:5c:67:50:fb:70:91:22:80:0a:a2:ad
        Signature Algorithm: sha256WithRSAEncryption
        Issuer: CN=Hacker
        Validity
            Not Before: Aug  8 16:09:50 2021 GMT
            Not After : Jul 23 16:09:50 2024 GMT
        Subject: C=BA, ST=Hell, L=Sheol, O=Hackers, OU=Hacking Department, CN=Hacker/emailAddress=hacker@hack.u
        Subject Public Key Info:
            Public Key Algorithm: rsaEncryption
                RSA Public-Key: (2048 bit)
                Modulus:
                    00:be:1d:7b:0e:a2:d5:eb:ae:13:fe:7a:80:7f:a7:
                    f8:48:5d:aa:80:a7:be:dd:b7:19:ac:48:98:61:59:
                    e9:01:13:2a:ef:e6:bc:28:a8:55:14:18:cd:2b:ea:
                    37:4f:bb:5f:ce:61:f0:47:4d:1b:b0:25:53:76:e2:
                    81:77:cb:35:dc:a6:8e:87:bd:b6:1e:83:28:9a:0b:
                    d2:56:de:69:db:cb:75:a3:94:69:f0:ae:1a:93:9e:
                    78:55:0f:ae:48:6f:fa:9d:3c:d6:5e:e7:d3:c1:a2:
                    06:3c:eb:51:13:95:1f:a6:f3:46:90:9a:fb:43:9b:
                    52:45:cf:20:ba:e7:55:46:4c:07:55:d1:65:06:36:
                    61:97:3b:ab:f9:ae:0b:cf:f9:f6:05:44:01:87:d6:
                    cd:0b:7a:68:86:f8:0b:77:ab:8c:13:f4:a4:e5:6b:
                    a8:9f:7d:f9:5a:ac:c2:86:5c:45:b1:a8:c0:45:0e:
                    d9:58:cf:30:27:52:a4:6a:54:1d:0a:7a:4a:5f:c7:
                    9a:d3:ae:9a:19:7b:22:1f:b0:65:d2:5c:69:16:b1:
                    a4:0f:8b:d8:26:c2:77:59:12:5b:4c:f1:23:2d:d2:
                    af:8b:00:02:88:96:ea:f8:fb:d8:4c:cb:be:d3:0c:
                    d2:d9:9c:73:df:3f:39:dd:e7:57:3d:21:47:a1:46:
                    74:3f
                Exponent: 65537 (0x10001)
        X509v3 extensions:
            X509v3 Basic Constraints: 
                CA:FALSE
            X509v3 Subject Key Identifier: 
                CF:1F:BD:F5:11:AC:88:35:42:06:9A:A0:A9:37:9E:D6:E1:96:06:7B
            X509v3 Authority Key Identifier: 
                keyid:2A:32:65:47:9D:57:4E:95:5D:97:CF:E6:D2:56:42:5B:03:09:09:1A
                DirName:/CN=Hacker
                serial:05:08:0C:D4:2D:6C:D3:1F:48:03:35:AA:48:F5:A1:EA:E9:51:02:C3

            X509v3 Extended Key Usage: 
                TLS Web Client Authentication
            X509v3 Key Usage: 
                Digital Signature
    Signature Algorithm: sha256WithRSAEncryption
         1b:60:28:c6:d3:f1:5a:b5:6d:83:6c:c4:7d:20:33:f2:1e:e9:
         64:f4:0a:e5:ce:b7:c3:f5:d0:91:3b:c9:e7:c9:a1:65:a1:66:
         da:5a:ff:61:22:0d:28:45:22:74:f9:82:7c:5d:cd:7e:4d:fe:
         62:2d:a7:cb:0e:a1:f1:50:ca:ff:04:34:76:8e:71:c3:b4:ec:
         32:46:aa:11:06:f9:7d:ff:7d:30:77:40:b6:2c:77:a1:38:f8:
         90:ed:01:39:a3:a3:0e:60:28:ed:fe:36:f9:47:85:87:80:3d:
         83:5d:f2:7e:4e:94:02:04:3d:b9:2f:22:88:7f:eb:ef:30:e8:
         c9:75:12:bd:5c:db:a4:66:57:2a:b5:10:7f:f3:26:37:ab:d7:
         3a:bc:a6:63:2d:f7:bb:ed:48:f6:16:b3:e3:20:16:18:47:3f:
         0b:e4:90:db:54:37:66:63:7e:0a:ee:98:ad:04:cd:15:d2:f6:
         95:ed:c8:24:d8:68:1c:72:9e:6c:23:5c:28:f2:a2:ac:66:7e:
         03:03:00:15:9d:48:f8:d8:28:84:06:2b:d1:1a:b9:1a:de:8b:
         4e:fc:07:4c:88:08:75:86:73:ee:60:27:5b:06:2a:c4:6a:cf:
         80:da:93:7d:61:f5:e3:49:5a:f4:a1:8b:e8:10:f4:5f:45:84:
         0d:d4:fe:fe
-----BEGIN CERTIFICATE-----
MIIDxDCCAqygAwIBAgIQVZgPoDBcZ1D7cJEigAqirTANBgkqhkiG9w0BAQsFADAR
MQ8wDQYDVQQDDAZIYWNrZXIwHhcNMjEwODA4MTYwOTUwWhcNMjQwNzIzMTYwOTUw
WjCBijELMAkGA1UEBhMCQkExDTALBgNVBAgMBEhlbGwxDjAMBgNVBAcMBVNoZW9s
MRAwDgYDVQQKDAdIYWNrZXJzMRswGQYDVQQLDBJIYWNraW5nIERlcGFydG1lbnQx
DzANBgNVBAMMBkhhY2tlcjEcMBoGCSqGSIb3DQEJARYNaGFja2VyQGhhY2sudTCC
ASIwDQYJKoZIhvcNAQEBBQADggEPADCCAQoCggEBAL4dew6i1euuE/56gH+n+Ehd
qoCnvt23GaxImGFZ6QETKu/mvCioVRQYzSvqN0+7X85h8EdNG7AlU3bigXfLNdym
joe9th6DKJoL0lbeadvLdaOUafCuGpOeeFUPrkhv+p081l7n08GiBjzrUROVH6bz
RpCa+0ObUkXPILrnVUZMB1XRZQY2YZc7q/muC8/59gVEAYfWzQt6aIb4C3erjBP0
pOVrqJ99+VqswoZcRbGowEUO2VjPMCdSpGpUHQp6Sl/HmtOumhl7Ih+wZdJcaRax
pA+L2CbCd1kSW0zxIy3Sr4sAAoiW6vj72EzLvtMM0tmcc98/Od3nVz0hR6FGdD8C
AwEAAaOBnTCBmjAJBgNVHRMEAjAAMB0GA1UdDgQWBBTPH731EayINUIGmqCpN57W
4ZYGezBMBgNVHSMERTBDgBQqMmVHnVdOlV2Xz+bSVkJbAwkJGqEVpBMwETEPMA0G
A1UEAwwGSGFja2VyghQFCAzULWzTH0gDNapI9aHq6VECwzATBgNVHSUEDDAKBggr
BgEFBQcDAjALBgNVHQ8EBAMCB4AwDQYJKoZIhvcNAQELBQADggEBABtgKMbT8Vq1
bYNsxH0gM/Ie6WT0CuXOt8P10JE7yefJoWWhZtpa/2EiDShFInT5gnxdzX5N/mIt
p8sOofFQyv8ENHaOccO07DJGqhEG+X3/fTB3QLYsd6E4+JDtATmjow5gKO3+NvlH
hYeAPYNd8n5OlAIEPbkvIoh/6+8w6Ml1Er1c26RmVyq1EH/zJjer1zq8pmMt97vt
SPYWs+MgFhhHPwvkkNtUN2ZjfgrumK0EzRXS9pXtyCTYaBxynmwjXCjyoqxmfgMD
ABWdSPjYKIQGK9EauRrei078B0yICHWGc+5gJ1sGKsRqz4Dak31h9eNJWvShi+gQ
9F9FhA3U/v4=
-----END CERTIFICATE-----